target datalayout = "e-m:e-p270:32:32-p271:32:32-p272:64:64-i64:64-i128:128-f80:128-n8:16:32:64-S128"
target triple = "x86_64-pc-linux-gnu"

%struct.ossl_param_st = type { ptr, i32, ptr, i64, i64 }

@stderr = external global ptr, align 8
@__const.ml_dsa_sign_verify.params = private unnamed_addr constant [2 x { ptr, i32, [4 x i8], ptr, i64, i64 }] [{ ptr, i32, [4 x i8], ptr, i64, i64 } { ptr @.str.20, i32 5, [4 x i8] zeroinitializer, ptr @.str.21, i64 16, i64 -1 }, { ptr, i32, [4 x i8], ptr, i64, i64 } zeroinitializer], align 16
@.str.22 = private unnamed_addr constant [21 x i8] c"Failed to set tbslen\00", align 1
@.str.23 = private unnamed_addr constant [25 x i8] c"../openssl/fuzz/ml-dsa.c\00", align 1
@.str.24 = private unnamed_addr constant [29 x i8] c"Failed basic initialization\0A\00", align 1
@.str.25 = private unnamed_addr constant [24 x i8] c"Failed to sign message\0A\00", align 1
@.str.26 = private unnamed_addr constant [26 x i8] c"Failed to verify message\0A\00", align 1

; Function Attrs: nounwind uwtable
define internal ptr @consume_size_t(ptr noundef %0, ptr noundef %1, ptr noundef %2) #0 {
  %4 = alloca ptr, align 8
  %5 = alloca ptr, align 8
  %6 = alloca ptr, align 8
  %7 = alloca ptr, align 8
  store ptr %0, ptr %5, align 8, !tbaa !11
  store ptr %1, ptr %6, align 8, !tbaa !21
  store ptr %2, ptr %7, align 8, !tbaa !21
  %8 = load ptr, ptr %6, align 8, !tbaa !21
  %9 = load i64, ptr %8, align 8, !tbaa !13
  %10 = icmp ult i64 %9, 8
  br i1 %10, label %11, label %12

11:                                               ; preds = %3
  store ptr null, ptr %4, align 8
  br label %22

12:                                               ; preds = %3
  %13 = load ptr, ptr %5, align 8, !tbaa !11
  %14 = load i8, ptr %13, align 1, !tbaa !16
  %15 = zext i8 %14 to i64
  %16 = load ptr, ptr %7, align 8, !tbaa !21
  store i64 %15, ptr %16, align 8, !tbaa !13
  %17 = load ptr, ptr %6, align 8, !tbaa !21
  %18 = load i64, ptr %17, align 8, !tbaa !13
  %19 = sub i64 %18, 8
  store i64 %19, ptr %17, align 8, !tbaa !13
  %20 = load ptr, ptr %5, align 8, !tbaa !11
  %21 = getelementptr inbounds nuw i8, ptr %20, i64 8
  store ptr %21, ptr %4, align 8
  br label %22

22:                                               ; preds = %12, %11
  %23 = load ptr, ptr %4, align 8
  ret ptr %23
}

; Function Attrs: nounwind uwtable
define internal void @ml_dsa_sign_verify(ptr noundef %0, ptr noundef %1, ptr noundef %2, ptr noundef %3, ptr noundef %4, ptr noundef %5) #0 {
  %7 = alloca ptr, align 8
  %8 = alloca ptr, align 8
  %9 = alloca ptr, align 8
  %10 = alloca ptr, align 8
  %11 = alloca ptr, align 8
  %12 = alloca ptr, align 8
  %13 = alloca ptr, align 8
  %14 = alloca ptr, align 8
  %15 = alloca ptr, align 8
  %16 = alloca ptr, align 8
  %17 = alloca i64, align 8
  %18 = alloca i64, align 8
  %19 = alloca ptr, align 8
  %20 = alloca ptr, align 8
  %21 = alloca [2 x %struct.ossl_param_st], align 16
  store ptr %0, ptr %7, align 8, !tbaa !23
  store ptr %1, ptr %8, align 8, !tbaa !21
  store ptr %2, ptr %9, align 8, !tbaa !15
  store ptr %3, ptr %10, align 8, !tbaa !15
  store ptr %4, ptr %11, align 8, !tbaa !15
  store ptr %5, ptr %12, align 8, !tbaa !15
  call void @llvm.lifetime.start.p0(i64 8, ptr %13) #6
  %22 = load ptr, ptr %9, align 8, !tbaa !15
  store ptr %22, ptr %13, align 8, !tbaa !27
  call void @llvm.lifetime.start.p0(i64 8, ptr %14) #6
  %23 = load ptr, ptr %13, align 8, !tbaa !27
  %24 = call ptr @EVP_PKEY_CTX_new_from_pkey(ptr noundef null, ptr noundef %23, ptr noundef null)
  store ptr %24, ptr %14, align 8, !tbaa !31
  call void @llvm.lifetime.start.p0(i64 8, ptr %15) #6
  store ptr null, ptr %15, align 8, !tbaa !33
  call void @llvm.lifetime.start.p0(i64 8, ptr %16) #6
  store ptr null, ptr %16, align 8, !tbaa !11
  call void @llvm.lifetime.start.p0(i64 8, ptr %17) #6
  store i64 0, ptr %17, align 8, !tbaa !13
  call void @llvm.lifetime.start.p0(i64 8, ptr %18) #6
  call void @llvm.lifetime.start.p0(i64 8, ptr %19) #6
  store ptr null, ptr %19, align 8, !tbaa !11
  call void @llvm.lifetime.start.p0(i64 8, ptr %20) #6
  %25 = load ptr, ptr %13, align 8, !tbaa !27
  %26 = call ptr @EVP_PKEY_get0_type_name(ptr noundef %25)
  store ptr %26, ptr %20, align 8, !tbaa !11
  call void @llvm.lifetime.start.p0(i64 80, ptr %21) #6
  call void @llvm.memcpy.p0.p0.i64(ptr align 16 %21, ptr align 16 @__const.ml_dsa_sign_verify.params, i64 80, i1 false)
  %27 = load ptr, ptr %7, align 8, !tbaa !23
  %28 = load ptr, ptr %27, align 8, !tbaa !11
  %29 = load ptr, ptr %8, align 8, !tbaa !21
  %30 = call ptr @consume_size_t(ptr noundef %28, ptr noundef %29, ptr noundef %18)
  %31 = icmp ne ptr %30, null
  br i1 %31, label %35, label %32

32:                                               ; preds = %6
  %33 = load ptr, ptr @stderr, align 8, !tbaa !29
  %34 = call i32 (ptr, ptr, ...) @fprintf(ptr noundef %33, ptr noundef @.str.22) #6
  br label %109

35:                                               ; preds = %6
  %36 = load i64, ptr %18, align 8, !tbaa !13
  %37 = urem i64 %36, 2048
  %38 = add i64 %37, 1
  store i64 %38, ptr %18, align 8, !tbaa !13
  %39 = load i64, ptr %18, align 8, !tbaa !13
  %40 = call noalias ptr @CRYPTO_malloc(i64 noundef %39, ptr noundef @.str.23, i32 noundef 322)
  store ptr %40, ptr %19, align 8, !tbaa !11
  %41 = icmp eq ptr %40, null
  br i1 %41, label %53, label %42

42:                                               ; preds = %35
  %43 = load ptr, ptr %14, align 8, !tbaa !31
  %44 = icmp eq ptr %43, null
  br i1 %44, label %53, label %45

45:                                               ; preds = %42
  %46 = load ptr, ptr %20, align 8, !tbaa !11
  %47 = icmp eq ptr %46, null
  br i1 %47, label %53, label %48

48:                                               ; preds = %45
  %49 = load ptr, ptr %19, align 8, !tbaa !11
  %50 = load i64, ptr %18, align 8, !tbaa !13
  %51 = call i32 @RAND_bytes_ex(ptr noundef null, ptr noundef %49, i64 noundef %50, i32 noundef 0)
  %52 = icmp ne i32 %51, 0
  br i1 %52, label %56, label %53

53:                                               ; preds = %48, %45, %42, %35
  %54 = load ptr, ptr @stderr, align 8, !tbaa !29
  %55 = call i32 (ptr, ptr, ...) @fprintf(ptr noundef %54, ptr noundef @.str.24) #6
  br label %109

56:                                               ; preds = %48
  %57 = load ptr, ptr %20, align 8, !tbaa !11
  %58 = call ptr @EVP_SIGNATURE_fetch(ptr noundef null, ptr noundef %57, ptr noundef null)
  store ptr %58, ptr %15, align 8, !tbaa !33
  %59 = icmp eq ptr %58, null
  br i1 %59, label %83, label %60

60:                                               ; preds = %56
  %61 = load ptr, ptr %14, align 8, !tbaa !31
  %62 = load ptr, ptr %15, align 8, !tbaa !33
  %63 = getelementptr inbounds [2 x %struct.ossl_param_st], ptr %21, i64 0, i64 0
  %64 = call i32 @EVP_PKEY_sign_message_init(ptr noundef %61, ptr noundef %62, ptr noundef %63)
  %65 = icmp sle i32 %64, 0
  br i1 %65, label %83, label %66

66:                                               ; preds = %60
  %67 = load ptr, ptr %14, align 8, !tbaa !31
  %68 = load ptr, ptr %19, align 8, !tbaa !11
  %69 = load i64, ptr %18, align 8, !tbaa !13
  %70 = call i32 @EVP_PKEY_sign(ptr noundef %67, ptr noundef null, ptr noundef %17, ptr noundef %68, i64 noundef %69)
  %71 = icmp sle i32 %70, 0
  br i1 %71, label %83, label %72

72:                                               ; preds = %66
  %73 = load i64, ptr %17, align 8, !tbaa !13
  %74 = call noalias ptr @CRYPTO_zalloc(i64 noundef %73, ptr noundef @.str.23, i32 noundef 338)
  store ptr %74, ptr %16, align 8, !tbaa !11
  %75 = icmp eq ptr %74, null
  br i1 %75, label %83, label %76

76:                                               ; preds = %72
  %77 = load ptr, ptr %14, align 8, !tbaa !31
  %78 = load ptr, ptr %16, align 8, !tbaa !11
  %79 = load ptr, ptr %19, align 8, !tbaa !11
  %80 = load i64, ptr %18, align 8, !tbaa !13
  %81 = call i32 @EVP_PKEY_sign(ptr noundef %77, ptr noundef %78, ptr noundef %17, ptr noundef %79, i64 noundef %80)
  %82 = icmp sle i32 %81, 0
  br i1 %82, label %83, label %86

83:                                               ; preds = %76, %72, %66, %60, %56
  %84 = load ptr, ptr @stderr, align 8, !tbaa !29
  %85 = call i32 (ptr, ptr, ...) @fprintf(ptr noundef %84, ptr noundef @.str.25) #6
  br label %109

86:                                               ; preds = %76
  %87 = load ptr, ptr %14, align 8, !tbaa !31
  call void @EVP_PKEY_CTX_free(ptr noundef %87)
  store ptr null, ptr %14, align 8, !tbaa !31
  %88 = load ptr, ptr %13, align 8, !tbaa !27
  %89 = call ptr @EVP_PKEY_CTX_new_from_pkey(ptr noundef null, ptr noundef %88, ptr noundef null)
  store ptr %89, ptr %14, align 8, !tbaa !31
  %90 = icmp eq ptr %89, null
  br i1 %90, label %105, label %91

91:                                               ; preds = %86
  %92 = load ptr, ptr %14, align 8, !tbaa !31
  %93 = load ptr, ptr %15, align 8, !tbaa !33
  %94 = getelementptr inbounds [2 x %struct.ossl_param_st], ptr %21, i64 0, i64 0
  %95 = call i32 @EVP_PKEY_verify_message_init(ptr noundef %92, ptr noundef %93, ptr noundef %94)
  %96 = icmp sle i32 %95, 0
  br i1 %96, label %105, label %97

97:                                               ; preds = %91
  %98 = load ptr, ptr %14, align 8, !tbaa !31
  %99 = load ptr, ptr %16, align 8, !tbaa !11
  %100 = load i64, ptr %17, align 8, !tbaa !13
  %101 = load ptr, ptr %19, align 8, !tbaa !11
  %102 = load i64, ptr %18, align 8, !tbaa !13
  %103 = call i32 @EVP_PKEY_verify(ptr noundef %98, ptr noundef %99, i64 noundef %100, ptr noundef %101, i64 noundef %102)
  %104 = icmp sle i32 %103, 0
  br i1 %104, label %105, label %108

105:                                              ; preds = %97, %91, %86
  %106 = load ptr, ptr @stderr, align 8, !tbaa !29
  %107 = call i32 (ptr, ptr, ...) @fprintf(ptr noundef %106, ptr noundef @.str.26) #6
  br label %109

108:                                              ; preds = %97
  br label %109

109:                                              ; preds = %108, %105, %83, %53, %32
  %110 = load ptr, ptr %19, align 8, !tbaa !11
  call void @CRYPTO_free(ptr noundef %110, ptr noundef @.str.23, i32 noundef 356)
  %111 = load ptr, ptr %14, align 8, !tbaa !31
  call void @EVP_PKEY_CTX_free(ptr noundef %111)
  %112 = load ptr, ptr %15, align 8, !tbaa !33
  call void @EVP_SIGNATURE_free(ptr noundef %112)
  %113 = load ptr, ptr %16, align 8, !tbaa !11
  call void @CRYPTO_free(ptr noundef %113, ptr noundef @.str.23, i32 noundef 359)
  call void @llvm.lifetime.end.p0(i64 80, ptr %21) #6
  call void @llvm.lifetime.end.p0(i64 8, ptr %20) #6
  call void @llvm.lifetime.end.p0(i64 8, ptr %19) #6
  call void @llvm.lifetime.end.p0(i64 8, ptr %18) #6
  call void @llvm.lifetime.end.p0(i64 8, ptr %17) #6
  call void @llvm.lifetime.end.p0(i64 8, ptr %16) #6
  call void @llvm.lifetime.end.p0(i64 8, ptr %15) #6
  call void @llvm.lifetime.end.p0(i64 8, ptr %14) #6
  call void @llvm.lifetime.end.p0(i64 8, ptr %13) #6
  ret void
}