; Function Attrs: nounwind uwtable
define internal void @ml_dsa_sign_verify(ptr noundef readonly captures(none) %0, ptr noundef captures(none) %1, ptr noundef %2, ptr readnone captures(none) %3, ptr readnone captures(none) %4, ptr readnone captures(none) %5) #1 {
  %7 = alloca i64, align 8
  %8 = alloca [2 x %struct.ossl_param_st], align 16
  %9 = tail call ptr @EVP_PKEY_CTX_new_from_pkey(ptr noundef null, ptr noundef %2, ptr noundef null) #6
  call void @llvm.lifetime.start.p0(i64 8, ptr nonnull %7) #6
  store i64 0, ptr %7, align 8, !tbaa !9
  %10 = tail call ptr @EVP_PKEY_get0_type_name(ptr noundef %2) #6
  call void @llvm.lifetime.start.p0(i64 80, ptr nonnull %8) #6
  call void @llvm.memcpy.p0.p0.i64(ptr noundef nonnull align 16 dereferenceable(80) %8, ptr noundef nonnull align 16 dereferenceable(80) @__const.ml_dsa_digest_sign_verify.params, i64 80, i1 false)
  %11 = load i64, ptr %1, align 8, !tbaa !9
  %12 = icmp ult i64 %11, 8
  br i1 %12, label %13, label %16

13:                                               ; preds = %6
  %14 = load ptr, ptr @stderr, align 8, !tbaa !16
  %15 = tail call i64 @fwrite(ptr nonnull @.str.22, i64 20, i64 1, ptr %14) #7
  br label %63

16:                                               ; preds = %6
  %17 = load ptr, ptr %0, align 8, !tbaa !11
  %18 = load i8, ptr %17, align 1, !tbaa !8
  %19 = zext i8 %18 to i64
  %20 = add i64 %11, -8
  store i64 %20, ptr %1, align 8, !tbaa !9
  %21 = add nuw nsw i64 %19, 1
  %22 = tail call noalias ptr @CRYPTO_malloc(i64 noundef %21, ptr noundef nonnull @.str.23, i32 noundef 322) #6
  %23 = icmp eq ptr %22, null
  %24 = icmp eq ptr %9, null
  %or.cond = select i1 %23, i1 true, i1 %24
  %25 = icmp eq ptr %10, null
  %or.cond3 = select i1 %or.cond, i1 true, i1 %25
  br i1 %or.cond3, label %28, label %26

26:                                               ; preds = %16
  %27 = tail call i32 @RAND_bytes_ex(ptr noundef null, ptr noundef nonnull %22, i64 noundef %21, i32 noundef 0) #6
  %.not40 = icmp eq i32 %27, 0
  br i1 %.not40, label %28, label %31

28:                                               ; preds = %26, %16
  %29 = load ptr, ptr @stderr, align 8, !tbaa !16
  %30 = tail call i64 @fwrite(ptr nonnull @.str.24, i64 28, i64 1, ptr %29) #7
  br label %63

31:                                               ; preds = %26
  %32 = tail call ptr @EVP_SIGNATURE_fetch(ptr noundef null, ptr noundef nonnull %10, ptr noundef null) #6
  %33 = icmp eq ptr %32, null
  br i1 %33, label %47, label %34

34:                                               ; preds = %31
  %35 = call i32 @EVP_PKEY_sign_message_init(ptr noundef nonnull %9, ptr noundef nonnull %32, ptr noundef nonnull %8) #6
  %36 = icmp slt i32 %35, 1
  br i1 %36, label %47, label %37

37:                                               ; preds = %34
  %38 = call i32 @EVP_PKEY_sign(ptr noundef nonnull %9, ptr noundef null, ptr noundef nonnull %7, ptr noundef nonnull %22, i64 noundef %21) #6
  %39 = icmp slt i32 %38, 1
  br i1 %39, label %47, label %40

40:                                               ; preds = %37
  %41 = load i64, ptr %7, align 8, !tbaa !9
  %42 = call noalias ptr @CRYPTO_zalloc(i64 noundef %41, ptr noundef nonnull @.str.23, i32 noundef 338) #6
  %43 = icmp eq ptr %42, null
  br i1 %43, label %47, label %44

44:                                               ; preds = %40
  %45 = call i32 @EVP_PKEY_sign(ptr noundef nonnull %9, ptr noundef nonnull %42, ptr noundef nonnull %7, ptr noundef nonnull %22, i64 noundef %21) #6
  %46 = icmp slt i32 %45, 1
  br i1 %46, label %47, label %50

47:                                               ; preds = %44, %40, %37, %34, %31
  %.1 = phi ptr [ null, %31 ], [ null, %34 ], [ null, %37 ], [ null, %40 ], [ %42, %44 ]
  %48 = load ptr, ptr @stderr, align 8, !tbaa !16
  %49 = call i64 @fwrite(ptr nonnull @.str.25, i64 23, i64 1, ptr %48) #7
  br label %63

50:                                               ; preds = %44
  call void @EVP_PKEY_CTX_free(ptr noundef nonnull %9) #6
  %51 = call ptr @EVP_PKEY_CTX_new_from_pkey(ptr noundef null, ptr noundef %2, ptr noundef null) #6
  %52 = icmp eq ptr %51, null
  br i1 %52, label %60, label %53

53:                                               ; preds = %50
  %54 = call i32 @EVP_PKEY_verify_message_init(ptr noundef nonnull %51, ptr noundef nonnull %32, ptr noundef nonnull %8) #6
  %55 = icmp slt i32 %54, 1
  br i1 %55, label %60, label %56

56:                                               ; preds = %53
  %57 = load i64, ptr %7, align 8, !tbaa !9
  %58 = call i32 @EVP_PKEY_verify(ptr noundef nonnull %51, ptr noundef nonnull %42, i64 noundef %57, ptr noundef nonnull %22, i64 noundef %21) #6
  %59 = icmp slt i32 %58, 1
  br i1 %59, label %60, label %63

60:                                               ; preds = %56, %53, %50
  %61 = load ptr, ptr @stderr, align 8, !tbaa !16
  %62 = call i64 @fwrite(ptr nonnull @.str.26, i64 25, i64 1, ptr %61) #7
  br label %63

63:                                               ; preds = %56, %60, %47, %28, %13
  %.032 = phi ptr [ null, %28 ], [ %32, %47 ], [ %32, %60 ], [ %32, %56 ], [ null, %13 ]
  %.031 = phi ptr [ null, %28 ], [ %.1, %47 ], [ %42, %60 ], [ %42, %56 ], [ null, %13 ]
  %.030 = phi ptr [ %22, %28 ], [ %22, %47 ], [ %22, %60 ], [ %22, %56 ], [ null, %13 ]
  %.0 = phi ptr [ %9, %28 ], [ %9, %47 ], [ %51, %60 ], [ %51, %56 ], [ %9, %13 ]
  call void @CRYPTO_free(ptr noundef %.030, ptr noundef nonnull @.str.23, i32 noundef 356) #6
  call void @EVP_PKEY_CTX_free(ptr noundef %.0) #6
  call void @EVP_SIGNATURE_free(ptr noundef %.032) #6
  call void @CRYPTO_free(ptr noundef %.031, ptr noundef nonnull @.str.23, i32 noundef 359) #6
  call void @llvm.lifetime.end.p0(i64 80, ptr nonnull %8) #6
  call void @llvm.lifetime.end.p0(i64 8, ptr nonnull %7) #6
  ret void
}